; Function Attrs: mustprogress uwtable
define noundef i32 @_ZN6colvar5angle4initERKNSt7__cxx1112basic_stringIcSt11char_traitsIcESaIcEEE(ptr noundef nonnull align 8 dereferenceable(1745) %0, ptr noundef nonnull align 8 dereferenceable(32) %1) unnamed_addr #2 align 2 {
  %3 = tail call noundef i32 @_ZN6colvar3cvc4initERKNSt7__cxx1112basic_stringIcSt11char_traitsIcESaIcEEE(ptr noundef nonnull align 8 dereferenceable(1608) %0, ptr noundef nonnull align 8 dereferenceable(32) %1)
  %4 = tail call noundef ptr @_ZN6colvar3cvc11parse_groupERKNSt7__cxx1112basic_stringIcSt11char_traitsIcESaIcEEEPKcb(ptr noundef nonnull align 8 dereferenceable(1608) %0, ptr noundef nonnull align 8 dereferenceable(32) %1, ptr noundef nonnull @.str.2, i1 noundef zeroext false)
  %5 = getelementptr inbounds nuw i8, ptr %0, i64 1608
  store ptr %4, ptr %5, align 8, !tbaa !101
  %6 = tail call noundef ptr @_ZN6colvar3cvc11parse_groupERKNSt7__cxx1112basic_stringIcSt11char_traitsIcESaIcEEEPKcb(ptr noundef nonnull align 8 dereferenceable(1608) %0, ptr noundef nonnull align 8 dereferenceable(32) %1, ptr noundef nonnull @.str.3, i1 noundef zeroext false)
  %7 = getelementptr inbounds nuw i8, ptr %0, i64 1616
  store ptr %6, ptr %7, align 8, !tbaa !103
  %8 = tail call noundef ptr @_ZN6colvar3cvc11parse_groupERKNSt7__cxx1112basic_stringIcSt11char_traitsIcESaIcEEEPKcb(ptr noundef nonnull align 8 dereferenceable(1608) %0, ptr noundef nonnull align 8 dereferenceable(32) %1, ptr noundef nonnull @.str.4, i1 noundef zeroext false)
  %9 = getelementptr inbounds nuw i8, ptr %0, i64 1624
  store ptr %8, ptr %9, align 8, !tbaa !104
  %10 = load ptr, ptr %0, align 8, !tbaa !85
  %11 = getelementptr inbounds nuw i8, ptr %10, i64 208
  %12 = load ptr, ptr %11, align 8
  %13 = tail call noundef i32 %12(ptr noundef nonnull align 8 dereferenceable(1608) %0, ptr noundef nonnull align 8 dereferenceable(32) %1)
  %14 = or i32 %13, %3
  ret i32 %14
}